target datalayout = "e-m:e-p270:32:32-p271:32:32-p272:64:64-i64:64-i128:128-f80:128-n8:16:32:64-S128"
target triple = "x86_64-pc-linux-gnu"

%struct.RBasic = type { i64, i64 }
%struct.RArray = type { %struct.RBasic, %union.anon.30 }
%union.anon.30 = type { %struct.anon.31 }
%struct.anon.31 = type { i64, %union.anon.32, ptr }
%union.anon.32 = type { i64 }

; Function Attrs: inlinehint nounwind sspstrong willreturn memory(read) uwtable
define internal i64 @RB_FL_TEST_RAW(i64 noundef %0, i64 noundef %1) #5 {
  %3 = alloca i64, align 8
  %4 = alloca i64, align 8
  store i64 %0, ptr %3, align 8, !tbaa !35
  store i64 %1, ptr %4, align 8, !tbaa !35
  %5 = load i64, ptr %3, align 8, !tbaa !35
  %6 = inttoptr i64 %5 to ptr
  %7 = getelementptr inbounds nuw %struct.RBasic, ptr %6, i32 0, i32 0
  %8 = load i64, ptr %7, align 8, !tbaa !215
  %9 = load i64, ptr %4, align 8, !tbaa !35
  %10 = and i64 %8, %9
  ret i64 %10
}

; Function Attrs: inlinehint nounwind sspstrong willreturn memory(none) uwtable
define internal zeroext i1 @RB_IMMEDIATE_P(i64 noundef %0) #4 {
  %2 = alloca i64, align 8
  store i64 %0, ptr %2, align 8, !tbaa !35
  %3 = load i64, ptr %2, align 8, !tbaa !35
  %4 = and i64 %3, 7
  %5 = icmp ne i64 %4, 0
  ret i1 %5
}

; Function Attrs: inlinehint nounwind sspstrong willreturn memory(none) uwtable
define internal zeroext i1 @RB_FLONUM_P(i64 noundef %0) #4 {
  %2 = alloca i64, align 8
  store i64 %0, ptr %2, align 8, !tbaa !35
  %3 = load i64, ptr %2, align 8, !tbaa !35
  %4 = and i64 %3, 3
  %5 = icmp eq i64 %4, 2
  ret i1 %5
}

; Function Attrs: inlinehint nounwind sspstrong willreturn memory(read) uwtable
define internal zeroext i1 @RB_DYNAMIC_SYM_P(i64 noundef %0) #5 {
  %2 = alloca i1, align 1
  %3 = alloca i64, align 8
  store i64 %0, ptr %3, align 8, !tbaa !35
  %4 = load i64, ptr %3, align 8, !tbaa !35
  %5 = call zeroext i1 @RB_SPECIAL_CONST_P(i64 noundef %4) #28
  br i1 %5, label %6, label %7

6:                                                ; preds = %1
  store i1 false, ptr %2, align 1
  br label %11

7:                                                ; preds = %1
  %8 = load i64, ptr %3, align 8, !tbaa !35
  %9 = call i32 @RB_BUILTIN_TYPE(i64 noundef %8) #29
  %10 = icmp eq i32 %9, 20
  store i1 %10, ptr %2, align 1
  br label %11

11:                                               ; preds = %7, %6
  %12 = load i1, ptr %2, align 1
  ret i1 %12
}

; Function Attrs: inlinehint nounwind sspstrong willreturn memory(none) uwtable
define internal zeroext i1 @RB_STATIC_SYM_P(i64 noundef %0) #4 {
  %2 = alloca i64, align 8
  %3 = alloca i64, align 8
  store i64 %0, ptr %2, align 8, !tbaa !35
  call void @llvm.lifetime.start.p0(i64 8, ptr %3) #27
  store i64 255, ptr %3, align 8, !tbaa !35
  %4 = load i64, ptr %2, align 8, !tbaa !35
  %5 = and i64 %4, 255
  %6 = icmp eq i64 %5, 12
  call void @llvm.lifetime.end.p0(i64 8, ptr %3) #27
  ret i1 %6
}

; Function Attrs: inlinehint nounwind sspstrong uwtable
define internal void @RBASIC_SET_CLASS_RAW(i64 noundef %0, i64 noundef %1) #1 {
  %3 = alloca i64, align 8
  %4 = alloca i64, align 8
  %5 = alloca ptr, align 8
  store i64 %0, ptr %3, align 8, !tbaa !35
  store i64 %1, ptr %4, align 8, !tbaa !35
  call void @llvm.lifetime.start.p0(i64 8, ptr %5) #27
  %6 = load i64, ptr %3, align 8, !tbaa !35
  %7 = inttoptr i64 %6 to ptr
  %8 = getelementptr inbounds nuw %struct.RBasic, ptr %7, i32 0, i32 1
  store ptr %8, ptr %5, align 8, !tbaa !70
  %9 = load i64, ptr %4, align 8, !tbaa !35
  %10 = load ptr, ptr %5, align 8, !tbaa !70
  store i64 %9, ptr %10, align 8, !tbaa !35
  call void @llvm.lifetime.end.p0(i64 8, ptr %5) #27
  ret void
}

; Function Attrs: inlinehint nounwind sspstrong willreturn memory(read) uwtable
define internal ptr @rb_array_const_ptr(i64 noundef %0) #5 {
  %2 = alloca ptr, align 8
  %3 = alloca i64, align 8
  store i64 %0, ptr %3, align 8, !tbaa !35
  %4 = load i64, ptr %3, align 8, !tbaa !35
  %5 = call zeroext i1 @RB_FL_ANY_RAW(i64 noundef %4, i64 noundef 8192) #29
  br i1 %5, label %6, label %11

6:                                                ; preds = %1
  %7 = load i64, ptr %3, align 8, !tbaa !35
  %8 = inttoptr i64 %7 to ptr
  %9 = getelementptr inbounds nuw %struct.RArray, ptr %8, i32 0, i32 1
  %10 = getelementptr inbounds [1 x i64], ptr %9, i64 0, i64 0
  store ptr %10, ptr %2, align 8
  br label %17

11:                                               ; preds = %1
  %12 = load i64, ptr %3, align 8, !tbaa !35
  %13 = inttoptr i64 %12 to ptr
  %14 = getelementptr inbounds nuw %struct.RArray, ptr %13, i32 0, i32 1
  %15 = getelementptr inbounds nuw %struct.anon.31, ptr %14, i32 0, i32 2
  %16 = load ptr, ptr %15, align 8, !tbaa !66
  store ptr %16, ptr %2, align 8
  br label %17

17:                                               ; preds = %11, %6
  %18 = load ptr, ptr %2, align 8
  ret ptr %18
}

; Function Attrs: inlinehint nounwind sspstrong willreturn memory(read) uwtable
define internal i64 @RARRAY_EMBED_LEN(i64 noundef %0) #5 {
  %2 = alloca i64, align 8
  %3 = alloca i64, align 8
  store i64 %0, ptr %2, align 8, !tbaa !35
  call void @llvm.lifetime.start.p0(i64 8, ptr %3) #27
  %4 = load i64, ptr %2, align 8, !tbaa !35
  %5 = inttoptr i64 %4 to ptr
  %6 = getelementptr inbounds nuw %struct.RBasic, ptr %5, i32 0, i32 0
  %7 = load i64, ptr %6, align 8, !tbaa !215
  store i64 %7, ptr %3, align 8, !tbaa !35
  %8 = load i64, ptr %3, align 8, !tbaa !35
  %9 = and i64 %8, 4161536
  store i64 %9, ptr %3, align 8, !tbaa !35
  %10 = load i64, ptr %3, align 8, !tbaa !35
  %11 = lshr i64 %10, 15
  store i64 %11, ptr %3, align 8, !tbaa !35
  %12 = load i64, ptr %3, align 8, !tbaa !35
  call void @llvm.lifetime.end.p0(i64 8, ptr %3) #27
  ret i64 %12
}

; Function Attrs: inlinehint nounwind sspstrong willreturn memory(read) uwtable
define internal zeroext i1 @RB_FL_ANY_RAW(i64 noundef %0, i64 noundef %1) #5 {
  %3 = alloca i64, align 8
  %4 = alloca i64, align 8
  store i64 %0, ptr %3, align 8, !tbaa !35
  store i64 %1, ptr %4, align 8, !tbaa !35
  %5 = load i64, ptr %3, align 8, !tbaa !35
  %6 = load i64, ptr %4, align 8, !tbaa !35
  %7 = call i64 @RB_FL_TEST_RAW(i64 noundef %5, i64 noundef %6) #29
  %8 = icmp ne i64 %7, 0
  ret i1 %8
}

; Function Attrs: inlinehint nounwind sspstrong willreturn memory(read) uwtable
define internal i32 @rb_type(i64 noundef %0) #5 {
  %2 = alloca i32, align 4
  %3 = alloca i64, align 8
  store i64 %0, ptr %3, align 8, !tbaa !35
  %4 = load i64, ptr %3, align 8, !tbaa !35
  %5 = call zeroext i1 @RB_SPECIAL_CONST_P(i64 noundef %4) #28
  br i1 %5, label %9, label %6

6:                                                ; preds = %1
  %7 = load i64, ptr %3, align 8, !tbaa !35
  %8 = call i32 @RB_BUILTIN_TYPE(i64 noundef %7) #29
  store i32 %8, ptr %2, align 4
  br label %36

9:                                                ; preds = %1
  %10 = load i64, ptr %3, align 8, !tbaa !35
  %11 = icmp eq i64 %10, 0
  br i1 %11, label %12, label %13

12:                                               ; preds = %9
  store i32 19, ptr %2, align 4
  br label %36

13:                                               ; preds = %9
  %14 = load i64, ptr %3, align 8, !tbaa !35
  %15 = icmp eq i64 %14, 4
  br i1 %15, label %16, label %17

16:                                               ; preds = %13
  store i32 17, ptr %2, align 4
  br label %36

17:                                               ; preds = %13
  %18 = load i64, ptr %3, align 8, !tbaa !35
  %19 = icmp eq i64 %18, 20
  br i1 %19, label %20, label %21

20:                                               ; preds = %17
  store i32 18, ptr %2, align 4
  br label %36

21:                                               ; preds = %17
  %22 = load i64, ptr %3, align 8, !tbaa !35
  %23 = icmp eq i64 %22, 36
  br i1 %23, label %24, label %25

24:                                               ; preds = %21
  store i32 22, ptr %2, align 4
  br label %36

25:                                               ; preds = %21
  %26 = load i64, ptr %3, align 8, !tbaa !35
  %27 = call zeroext i1 @RB_FIXNUM_P(i64 noundef %26) #28
  br i1 %27, label %28, label %29

28:                                               ; preds = %25
  store i32 21, ptr %2, align 4
  br label %36

29:                                               ; preds = %25
  %30 = load i64, ptr %3, align 8, !tbaa !35
  %31 = call zeroext i1 @RB_STATIC_SYM_P(i64 noundef %30) #28
  br i1 %31, label %32, label %33

32:                                               ; preds = %29
  store i32 20, ptr %2, align 4
  br label %36

33:                                               ; preds = %29
  %34 = load i64, ptr %3, align 8, !tbaa !35
  %35 = call zeroext i1 @RB_FLONUM_P(i64 noundef %34) #28
  call void @llvm.assume(i1 %35)
  store i32 4, ptr %2, align 4
  br label %36

36:                                               ; preds = %33, %32, %28, %24, %20, %16, %12, %6
  %37 = load i32, ptr %2, align 4
  ret i32 %37
}

; Function Attrs: inlinehint nounwind sspstrong willreturn memory(read) uwtable
define internal i32 @RB_BUILTIN_TYPE(i64 noundef %0) #5 {
  %2 = alloca i64, align 8
  %3 = alloca i64, align 8
  store i64 %0, ptr %2, align 8, !tbaa !35
  call void @llvm.lifetime.start.p0(i64 8, ptr %3) #27
  %4 = load i64, ptr %2, align 8, !tbaa !35
  %5 = inttoptr i64 %4 to ptr
  %6 = getelementptr inbounds nuw %struct.RBasic, ptr %5, i32 0, i32 0
  %7 = load i64, ptr %6, align 8, !tbaa !215
  %8 = and i64 %7, 31
  store i64 %8, ptr %3, align 8, !tbaa !35
  %9 = load i64, ptr %3, align 8, !tbaa !35
  %10 = trunc i64 %9 to i32
  call void @llvm.lifetime.end.p0(i64 8, ptr %3) #27
  ret i32 %10
}

; Function Attrs: inlinehint nounwind sspstrong willreturn memory(none) uwtable
define internal zeroext i1 @RB_SPECIAL_CONST_P(i64 noundef %0) #4 {
  %2 = alloca i64, align 8
  store i64 %0, ptr %2, align 8, !tbaa !35
  %3 = load i64, ptr %2, align 8, !tbaa !35
  %4 = icmp eq i64 %3, 0
  br i1 %4, label %8, label %5

5:                                                ; preds = %1
  %6 = load i64, ptr %2, align 8, !tbaa !35
  %7 = call zeroext i1 @RB_IMMEDIATE_P(i64 noundef %6) #28
  br label %8

8:                                                ; preds = %5, %1
  %9 = phi i1 [ true, %1 ], [ %7, %5 ]
  ret i1 %9
}

; Function Attrs: inlinehint nounwind sspstrong willreturn memory(read) uwtable
define internal zeroext i1 @RB_FLOAT_TYPE_P(i64 noundef %0) #5 {
  %2 = alloca i1, align 1
  %3 = alloca i64, align 8
  store i64 %0, ptr %3, align 8, !tbaa !35
  %4 = load i64, ptr %3, align 8, !tbaa !35
  %5 = call zeroext i1 @RB_FLONUM_P(i64 noundef %4) #28
  br i1 %5, label %6, label %7

6:                                                ; preds = %1
  store i1 true, ptr %2, align 1
  br label %15

7:                                                ; preds = %1
  %8 = load i64, ptr %3, align 8, !tbaa !35
  %9 = call zeroext i1 @RB_SPECIAL_CONST_P(i64 noundef %8) #28
  br i1 %9, label %10, label %11

10:                                               ; preds = %7
  store i1 false, ptr %2, align 1
  br label %15

11:                                               ; preds = %7
  %12 = load i64, ptr %3, align 8, !tbaa !35
  %13 = call i32 @RB_BUILTIN_TYPE(i64 noundef %12) #29
  %14 = icmp eq i32 %13, 4
  store i1 %14, ptr %2, align 1
  br label %15

15:                                               ; preds = %11, %10, %6
  %16 = load i1, ptr %2, align 1
  ret i1 %16
}

; Function Attrs: inlinehint nounwind sspstrong willreturn memory(read) uwtable
define internal zeroext i1 @RB_SYMBOL_P(i64 noundef %0) #5 {
  %2 = alloca i64, align 8
  store i64 %0, ptr %2, align 8, !tbaa !35
  %3 = load i64, ptr %2, align 8, !tbaa !35
  %4 = call zeroext i1 @RB_STATIC_SYM_P(i64 noundef %3) #28
  br i1 %4, label %8, label %5

5:                                                ; preds = %1
  %6 = load i64, ptr %2, align 8, !tbaa !35
  %7 = call zeroext i1 @RB_DYNAMIC_SYM_P(i64 noundef %6) #29
  br label %8

8:                                                ; preds = %5, %1
  %9 = phi i1 [ true, %1 ], [ %7, %5 ]
  ret i1 %9
}

; Function Attrs: inlinehint nounwind sspstrong willreturn memory(none) uwtable
define internal zeroext i1 @RB_FIXNUM_P(i64 noundef %0) #4 {
  %2 = alloca i64, align 8
  store i64 %0, ptr %2, align 8, !tbaa !35
  %3 = load i64, ptr %2, align 8, !tbaa !35
  %4 = and i64 %3, 1
  %5 = icmp ne i64 %4, 0
  ret i1 %5
}

; Function Attrs: inlinehint nounwind sspstrong uwtable
define internal void @RBASIC_CLEAR_CLASS(i64 noundef %0) #1 {
  %2 = alloca i64, align 8
  store i64 %0, ptr %2, align 8, !tbaa !35
  %3 = load i64, ptr %2, align 8, !tbaa !35
  call void @RBASIC_SET_CLASS_RAW(i64 noundef %3, i64 noundef 0)
  ret void
}

; Function Attrs: inlinehint nounwind sspstrong willreturn memory(read) uwtable
define internal i64 @RARRAY_AREF(i64 noundef %0, i64 noundef %1) #5 {
  %3 = alloca i64, align 8
  %4 = alloca i64, align 8
  %5 = alloca i64, align 8
  store i64 %0, ptr %3, align 8, !tbaa !35
  store i64 %1, ptr %4, align 8, !tbaa !35
  call void @llvm.lifetime.start.p0(i64 8, ptr %5) #27
  %6 = load i64, ptr %3, align 8, !tbaa !35
  %7 = call ptr @rb_array_const_ptr(i64 noundef %6) #29
  %8 = load i64, ptr %4, align 8, !tbaa !35
  %9 = getelementptr i64, ptr %7, i64 %8
  %10 = load i64, ptr %9, align 8, !tbaa !35
  store i64 %10, ptr %5, align 8, !tbaa !35
  %11 = load i64, ptr %5, align 8, !tbaa !35
  call void @llvm.lifetime.end.p0(i64 8, ptr %5) #27
  ret i64 %11
}

; Function Attrs: inlinehint nounwind sspstrong willreturn memory(read) uwtable
define internal i64 @rb_array_len(i64 noundef %0) #5 {
  %2 = alloca i64, align 8
  %3 = alloca i64, align 8
  store i64 %0, ptr %3, align 8, !tbaa !35
  %4 = load i64, ptr %3, align 8, !tbaa !35
  %5 = call zeroext i1 @RB_FL_ANY_RAW(i64 noundef %4, i64 noundef 8192) #29
  br i1 %5, label %6, label %9

6:                                                ; preds = %1
  %7 = load i64, ptr %3, align 8, !tbaa !35
  %8 = call i64 @RARRAY_EMBED_LEN(i64 noundef %7) #29
  store i64 %8, ptr %2, align 8
  br label %15

9:                                                ; preds = %1
  %10 = load i64, ptr %3, align 8, !tbaa !35
  %11 = inttoptr i64 %10 to ptr
  %12 = getelementptr inbounds nuw %struct.RArray, ptr %11, i32 0, i32 1
  %13 = getelementptr inbounds nuw %struct.anon.31, ptr %12, i32 0, i32 0
  %14 = load i64, ptr %13, align 8, !tbaa !66
  store i64 %14, ptr %2, align 8
  br label %15

15:                                               ; preds = %9, %6
  %16 = load i64, ptr %2, align 8
  ret i64 %16
}

; Function Attrs: inlinehint nounwind sspstrong willreturn memory(none) uwtable
define internal zeroext i1 @RB_NIL_P(i64 noundef %0) #4 {
  %2 = alloca i64, align 8
  store i64 %0, ptr %2, align 8, !tbaa !35
  %3 = load i64, ptr %2, align 8, !tbaa !35
  %4 = icmp eq i64 %3, 4
  ret i1 %4
}

; Function Attrs: inlinehint nounwind sspstrong willreturn memory(read) uwtable
define internal zeroext i1 @RB_TYPE_P(i64 noundef %0, i32 noundef %1) #5 {
  %3 = alloca i1, align 1
  %4 = alloca i64, align 8
  %5 = alloca i32, align 4
  store i64 %0, ptr %4, align 8, !tbaa !35
  store i32 %1, ptr %5, align 4, !tbaa !34
  %6 = load i32, ptr %5, align 4, !tbaa !34
  %7 = call i1 @llvm.is.constant.i32(i32 %6)
  br i1 %7, label %8, label %12

8:                                                ; preds = %2
  %9 = load i64, ptr %4, align 8, !tbaa !35
  %10 = load i32, ptr %5, align 4, !tbaa !34
  %11 = call zeroext i1 @rbimpl_RB_TYPE_P_fastpath(i64 noundef %9, i32 noundef %10) #29
  store i1 %11, ptr %3, align 1
  br label %17

12:                                               ; preds = %2
  %13 = load i32, ptr %5, align 4, !tbaa !34
  %14 = load i64, ptr %4, align 8, !tbaa !35
  %15 = call i32 @rb_type(i64 noundef %14) #29
  %16 = icmp eq i32 %13, %15
  store i1 %16, ptr %3, align 1
  br label %17

17:                                               ; preds = %12, %8
  %18 = load i1, ptr %3, align 1
  ret i1 %18
}

; Function Attrs: alwaysinline nounwind sspstrong willreturn memory(read) uwtable
define internal zeroext i1 @rbimpl_RB_TYPE_P_fastpath(i64 noundef %0, i32 noundef %1) #17 {
  %3 = alloca i1, align 1
  %4 = alloca i64, align 8
  %5 = alloca i32, align 4
  store i64 %0, ptr %4, align 8, !tbaa !35
  store i32 %1, ptr %5, align 4, !tbaa !34
  %6 = load i32, ptr %5, align 4, !tbaa !34
  %7 = icmp eq i32 %6, 18
  br i1 %7, label %8, label %11

8:                                                ; preds = %2
  %9 = load i64, ptr %4, align 8, !tbaa !35
  %10 = icmp eq i64 %9, 20
  store i1 %10, ptr %3, align 1
  br label %58

11:                                               ; preds = %2
  %12 = load i32, ptr %5, align 4, !tbaa !34
  %13 = icmp eq i32 %12, 19
  br i1 %13, label %14, label %17

14:                                               ; preds = %11
  %15 = load i64, ptr %4, align 8, !tbaa !35
  %16 = icmp eq i64 %15, 0
  store i1 %16, ptr %3, align 1
  br label %58

17:                                               ; preds = %11
  %18 = load i32, ptr %5, align 4, !tbaa !34
  %19 = icmp eq i32 %18, 17
  br i1 %19, label %20, label %23

20:                                               ; preds = %17
  %21 = load i64, ptr %4, align 8, !tbaa !35
  %22 = icmp eq i64 %21, 4
  store i1 %22, ptr %3, align 1
  br label %58

23:                                               ; preds = %17
  %24 = load i32, ptr %5, align 4, !tbaa !34
  %25 = icmp eq i32 %24, 22
  br i1 %25, label %26, label %29

26:                                               ; preds = %23
  %27 = load i64, ptr %4, align 8, !tbaa !35
  %28 = icmp eq i64 %27, 36
  store i1 %28, ptr %3, align 1
  br label %58

29:                                               ; preds = %23
  %30 = load i32, ptr %5, align 4, !tbaa !34
  %31 = icmp eq i32 %30, 21
  br i1 %31, label %32, label %35

32:                                               ; preds = %29
  %33 = load i64, ptr %4, align 8, !tbaa !35
  %34 = call zeroext i1 @RB_FIXNUM_P(i64 noundef %33) #28
  store i1 %34, ptr %3, align 1
  br label %58

35:                                               ; preds = %29
  %36 = load i32, ptr %5, align 4, !tbaa !34
  %37 = icmp eq i32 %36, 20
  br i1 %37, label %38, label %41

38:                                               ; preds = %35
  %39 = load i64, ptr %4, align 8, !tbaa !35
  %40 = call zeroext i1 @RB_SYMBOL_P(i64 noundef %39) #29
  store i1 %40, ptr %3, align 1
  br label %58

41:                                               ; preds = %35
  %42 = load i32, ptr %5, align 4, !tbaa !34
  %43 = icmp eq i32 %42, 4
  br i1 %43, label %44, label %47

44:                                               ; preds = %41
  %45 = load i64, ptr %4, align 8, !tbaa !35
  %46 = call zeroext i1 @RB_FLOAT_TYPE_P(i64 noundef %45) #29
  store i1 %46, ptr %3, align 1
  br label %58

47:                                               ; preds = %41
  %48 = load i64, ptr %4, align 8, !tbaa !35
  %49 = call zeroext i1 @RB_SPECIAL_CONST_P(i64 noundef %48) #28
  br i1 %49, label %50, label %51

50:                                               ; preds = %47
  store i1 false, ptr %3, align 1
  br label %58

51:                                               ; preds = %47
  %52 = load i32, ptr %5, align 4, !tbaa !34
  %53 = load i64, ptr %4, align 8, !tbaa !35
  %54 = call i32 @RB_BUILTIN_TYPE(i64 noundef %53) #29
  %55 = icmp eq i32 %52, %54
  br i1 %55, label %56, label %57

56:                                               ; preds = %51
  store i1 true, ptr %3, align 1
  br label %58

57:                                               ; preds = %51
  store i1 false, ptr %3, align 1
  br label %58

58:                                               ; preds = %57, %56, %50, %44, %38, %32, %26, %20, %14, %8
  %59 = load i1, ptr %3, align 1
  ret i1 %59
}

; Function Attrs: nounwind sspstrong uwtable
define internal i64 @hide_obj(i64 noundef %0) #0 {
  %2 = alloca i64, align 8
  store i64 %0, ptr %2, align 8, !tbaa !35
  %3 = load i64, ptr %2, align 8, !tbaa !35
  call void @RBASIC_CLEAR_CLASS(i64 noundef %3)
  %4 = load i64, ptr %2, align 8, !tbaa !35
  ret i64 %4
}

; Function Attrs: nounwind sspstrong uwtable
define internal i64 @check_exec_redirect1(i64 noundef %0, i64 noundef %1, i64 noundef %2) #0 {
  %4 = alloca i64, align 8
  %5 = alloca i64, align 8
  %6 = alloca i64, align 8
  %7 = alloca i64, align 8
  %8 = alloca i32, align 4
  %9 = alloca i64, align 8
  %10 = alloca i64, align 8
  store i64 %0, ptr %4, align 8, !tbaa !35
  store i64 %1, ptr %5, align 8, !tbaa !35
  store i64 %2, ptr %6, align 8, !tbaa !35
  %11 = load i64, ptr %4, align 8, !tbaa !35
  %12 = icmp eq i64 %11, 0
  br i1 %12, label %13, label %16

13:                                               ; preds = %3
  %14 = call i64 @rb_ary_new()
  %15 = call i64 @hide_obj(i64 noundef %14)
  store i64 %15, ptr %4, align 8, !tbaa !35
  br label %16

16:                                               ; preds = %13, %3
  br i1 true, label %17, label %20

17:                                               ; preds = %16
  %18 = load i64, ptr %5, align 8, !tbaa !35
  %19 = call zeroext i1 @rbimpl_RB_TYPE_P_fastpath(i64 noundef %18, i32 noundef 7) #29
  br i1 %19, label %36, label %23

20:                                               ; preds = %16
  %21 = load i64, ptr %5, align 8, !tbaa !35
  %22 = call zeroext i1 @RB_TYPE_P(i64 noundef %21, i32 noundef 7) #29
  br i1 %22, label %36, label %23

23:                                               ; preds = %20, %17
  call void @llvm.lifetime.start.p0(i64 8, ptr %7) #27
  %24 = load i64, ptr %5, align 8, !tbaa !35
  %25 = load i64, ptr %6, align 8, !tbaa !35
  %26 = call zeroext i1 @RB_NIL_P(i64 noundef %25) #28
  %27 = xor i1 %26, true
  %28 = zext i1 %27 to i32
  %29 = call i64 @check_exec_redirect_fd(i64 noundef %24, i32 noundef %28)
  store i64 %29, ptr %7, align 8, !tbaa !35
  %30 = load i64, ptr %4, align 8, !tbaa !35
  %31 = load i64, ptr %7, align 8, !tbaa !35
  %32 = load i64, ptr %6, align 8, !tbaa !35
  %33 = call i64 @rb_assoc_new(i64 noundef %31, i64 noundef %32)
  %34 = call i64 @hide_obj(i64 noundef %33)
  %35 = call i64 @rb_ary_push(i64 noundef %30, i64 noundef %34)
  call void @llvm.lifetime.end.p0(i64 8, ptr %7) #27
  br label %64

36:                                               ; preds = %20, %17
  call void @llvm.lifetime.start.p0(i64 4, ptr %8) #27
  store i32 0, ptr %8, align 4, !tbaa !34
  br label %37

37:                                               ; preds = %60, %36
  %38 = load i32, ptr %8, align 4, !tbaa !34
  %39 = sext i32 %38 to i64
  %40 = load i64, ptr %5, align 8, !tbaa !35
  %41 = call i64 @rb_array_len(i64 noundef %40) #29
  %42 = icmp slt i64 %39, %41
  br i1 %42, label %43, label %63

43:                                               ; preds = %37
  call void @llvm.lifetime.start.p0(i64 8, ptr %9) #27
  %44 = load i64, ptr %5, align 8, !tbaa !35
  %45 = load i32, ptr %8, align 4, !tbaa !34
  %46 = sext i32 %45 to i64
  %47 = call i64 @RARRAY_AREF(i64 noundef %44, i64 noundef %46) #29
  store i64 %47, ptr %9, align 8, !tbaa !35
  call void @llvm.lifetime.start.p0(i64 8, ptr %10) #27
  %48 = load i64, ptr %9, align 8, !tbaa !35
  %49 = load i64, ptr %6, align 8, !tbaa !35
  %50 = call zeroext i1 @RB_NIL_P(i64 noundef %49) #28
  %51 = xor i1 %50, true
  %52 = zext i1 %51 to i32
  %53 = call i64 @check_exec_redirect_fd(i64 noundef %48, i32 noundef %52)
  store i64 %53, ptr %10, align 8, !tbaa !35
  %54 = load i64, ptr %4, align 8, !tbaa !35
  %55 = load i64, ptr %10, align 8, !tbaa !35
  %56 = load i64, ptr %6, align 8, !tbaa !35
  %57 = call i64 @rb_assoc_new(i64 noundef %55, i64 noundef %56)
  %58 = call i64 @hide_obj(i64 noundef %57)
  %59 = call i64 @rb_ary_push(i64 noundef %54, i64 noundef %58)
  call void @llvm.lifetime.end.p0(i64 8, ptr %10) #27
  call void @llvm.lifetime.end.p0(i64 8, ptr %9) #27
  br label %60

60:                                               ; preds = %43
  %61 = load i32, ptr %8, align 4, !tbaa !34
  %62 = add i32 %61, 1
  store i32 %62, ptr %8, align 4, !tbaa !34
  br label %37, !llvm.loop !232

63:                                               ; preds = %37
  call void @llvm.lifetime.end.p0(i64 4, ptr %8) #27
  br label %64

64:                                               ; preds = %63, %23
  %65 = load i64, ptr %4, align 8, !tbaa !35
  ret i64 %65
}