; Function Attrs: nounwind sspstrong uwtable
define internal fastcc i64 @check_exec_redirect1(i64 noundef %0, i64 noundef %1, i64 noundef %2) unnamed_addr #1 {
  %4 = icmp eq i64 %0, 0
  br i1 %4, label %5, label %9

5:                                                ; preds = %3
  %6 = tail call i64 @rb_ary_new() #27
  %7 = inttoptr i64 %6 to ptr
  %8 = getelementptr inbounds nuw i8, ptr %7, i64 8
  store i64 0, ptr %8, align 8, !tbaa !43
  br label %9

9:                                                ; preds = %3, %5
  %.0 = phi i64 [ %6, %5 ], [ %0, %3 ]
  %10 = icmp eq i64 %1, 0
  %11 = and i64 %1, 7
  %12 = icmp ne i64 %11, 0
  %13 = or i1 %10, %12
  br i1 %13, label %rbimpl_RB_TYPE_P_fastpath.exit.thread, label %rbimpl_RB_TYPE_P_fastpath.exit

rbimpl_RB_TYPE_P_fastpath.exit:                   ; preds = %9
  %14 = inttoptr i64 %1 to ptr
  %15 = load i64, ptr %14, align 8, !tbaa !69
  %16 = and i64 %15, 31
  %17 = icmp eq i64 %16, 7
  br i1 %17, label %.preheader, label %rbimpl_RB_TYPE_P_fastpath.exit.thread

.preheader:                                       ; preds = %rbimpl_RB_TYPE_P_fastpath.exit
  %18 = getelementptr inbounds nuw i8, ptr %14, i64 16
  %19 = getelementptr inbounds nuw i8, ptr %14, i64 32
  br label %25

rbimpl_RB_TYPE_P_fastpath.exit.thread:            ; preds = %9, %rbimpl_RB_TYPE_P_fastpath.exit
  %20 = tail call fastcc i64 @check_exec_redirect_fd(i64 noundef %1)
  %21 = tail call i64 @rb_assoc_new(i64 noundef %20, i64 noundef %2) #27
  %22 = inttoptr i64 %21 to ptr
  %23 = getelementptr inbounds nuw i8, ptr %22, i64 8
  store i64 0, ptr %23, align 8, !tbaa !43
  %24 = tail call i64 @rb_ary_push(i64 noundef %.0, i64 noundef %21) #27
  br label %.loopexit

25:                                               ; preds = %.preheader, %RARRAY_AREF.exit
  %26 = phi i64 [ %.pre, %RARRAY_AREF.exit ], [ %15, %.preheader ]
  %.018 = phi i32 [ %43, %RARRAY_AREF.exit ], [ 0, %.preheader ]
  %27 = sext i32 %.018 to i64
  %28 = and i64 %26, 8192
  %.not.i = icmp eq i64 %28, 0
  br i1 %.not.i, label %rb_array_len.exit, label %rb_array_len.exit.thread

rb_array_len.exit:                                ; preds = %25
  %29 = load i64, ptr %18, align 8, !tbaa !67
  %30 = icmp sgt i64 %29, %27
  br i1 %30, label %34, label %.loopexit

rb_array_len.exit.thread:                         ; preds = %25
  %31 = lshr i64 %26, 15
  %32 = and i64 %31, 127
  %33 = icmp sgt i64 %32, %27
  br i1 %33, label %RARRAY_AREF.exit, label %.loopexit

34:                                               ; preds = %rb_array_len.exit
  %35 = load ptr, ptr %19, align 8, !tbaa !67
  br label %RARRAY_AREF.exit

RARRAY_AREF.exit:                                 ; preds = %rb_array_len.exit.thread, %34
  %.0.i.i = phi ptr [ %35, %34 ], [ %18, %rb_array_len.exit.thread ]
  %36 = getelementptr i64, ptr %.0.i.i, i64 %27
  %37 = load i64, ptr %36, align 8, !tbaa !43
  %38 = tail call fastcc i64 @check_exec_redirect_fd(i64 noundef %37)
  %39 = tail call i64 @rb_assoc_new(i64 noundef %38, i64 noundef %2) #27
  %40 = inttoptr i64 %39 to ptr
  %41 = getelementptr inbounds nuw i8, ptr %40, i64 8
  store i64 0, ptr %41, align 8, !tbaa !43
  %42 = tail call i64 @rb_ary_push(i64 noundef %.0, i64 noundef %39) #27
  %43 = add i32 %.018, 1
  %.pre = load i64, ptr %14, align 8, !tbaa !69
  br label %25, !llvm.loop !297

.loopexit:                                        ; preds = %rb_array_len.exit.thread, %rb_array_len.exit, %rbimpl_RB_TYPE_P_fastpath.exit.thread
  ret i64 %.0
}